target datalayout = "e-m:e-p270:32:32-p271:32:32-p272:64:64-i64:64-i128:128-f80:128-n8:16:32:64-S128"
target triple = "x86_64-pc-linux-gnu"

%struct._packet_info = type { ptr, ptr, i32, i32, %struct.nstime_t, %struct.nstime_t, %struct.nstime_t, i8, ptr, ptr, ptr, ptr, %struct._address, %struct._address, %struct._address, %struct._address, %struct._address, %struct._address, i32, ptr, i8, [3 x i8], %struct.anon, i32, i32, i32, i32, ptr, i8, ptr, ptr, i16, i16, i32, i32, i16, i32, i32, ptr, ptr, ptr, i8, i8, i16, i16, i16, i32, i16, i16, ptr, ptr, ptr, ptr, ptr, i32, i32 }
%struct.nstime_t = type { i64, i32 }
%struct._address = type { i32, i32, ptr, ptr }
%struct.anon = type { i8, [3 x i8] }

@hf_pktc_mtafqdn_msgtype = internal global i32 0, align 4
@hf_pktc_mtafqdn_enterprise = internal global i32 0, align 4
@hf_pktc_mtafqdn_version = internal global i32 0, align 4
@hf_pktc_mtafqdn_mac = internal global i32 0, align 4
@hf_pktc_mtafqdn_pub_key_hash = internal global i32 0, align 4
@hf_pktc_mtafqdn_manu_cert_revoked = internal global i32 0, align 4
@hf_pktc_mtafqdn_fqdn = internal global i32 0, align 4
@hf_pktc_mtafqdn_ip = internal global i32 0, align 4
@.str.145 = private unnamed_addr constant [11 x i8] c"MsgType %u\00", align 1
@.str.146 = private unnamed_addr constant [12 x i8] c"not revoked\00", align 1

; Function Attrs: null_pointer_is_valid sspstrong uwtable
define internal i32 @dissect_pktc_mtafqdn_krbsafeuserdata(ptr noundef %0, ptr noundef %1, ptr noundef %2) #0 {
  %4 = alloca ptr, align 8
  %5 = alloca ptr, align 8
  %6 = alloca ptr, align 8
  %7 = alloca i32, align 4
  %8 = alloca i32, align 4
  %9 = alloca i8, align 1
  %10 = alloca i32, align 4
  %11 = alloca %struct.nstime_t, align 8
  store ptr %0, ptr %4, align 8
  store ptr %1, ptr %5, align 8
  store ptr %2, ptr %6, align 8
  call void @llvm.lifetime.start.p0(i64 4, ptr %7) #5
  store i32 0, ptr %7, align 4
  call void @llvm.lifetime.start.p0(i64 4, ptr %8) #5
  store i32 0, ptr %8, align 4
  call void @llvm.lifetime.start.p0(i64 1, ptr %9) #5
  call void @llvm.lifetime.start.p0(i64 4, ptr %10) #5
  call void @llvm.lifetime.start.p0(i64 16, ptr %11) #5
  %12 = load ptr, ptr %5, align 8
  %13 = load i32, ptr %7, align 4
  %14 = call zeroext i8 @tvb_get_uint8(ptr noundef %12, i32 noundef %13)
  store i8 %14, ptr %9, align 1
  %15 = load ptr, ptr %6, align 8
  %16 = load i32, ptr @hf_pktc_mtafqdn_msgtype, align 4
  %17 = load ptr, ptr %5, align 8
  %18 = load i32, ptr %7, align 4
  %19 = load i8, ptr %9, align 1
  %20 = zext i8 %19 to i32
  %21 = call ptr @proto_tree_add_uint(ptr noundef %15, i32 noundef %16, ptr noundef %17, i32 noundef %18, i32 noundef 1, i32 noundef %20)
  %22 = load i32, ptr %7, align 4
  %23 = add i32 %22, 1
  store i32 %23, ptr %7, align 4
  %24 = load ptr, ptr %4, align 8
  %25 = getelementptr inbounds nuw %struct._packet_info, ptr %24, i32 0, i32 1
  %26 = load ptr, ptr %25, align 8
  %27 = load i8, ptr %9, align 1
  %28 = zext i8 %27 to i32
  %29 = call ptr @val_to_str(i32 noundef %28, ptr noundef @pktc_mtafqdn_msgtype_vals, ptr noundef @.str.145)
  call void @col_add_str(ptr noundef %26, i32 noundef 25, ptr noundef %29)
  %30 = load ptr, ptr %6, align 8
  %31 = load i32, ptr @hf_pktc_mtafqdn_enterprise, align 4
  %32 = load ptr, ptr %5, align 8
  %33 = load i32, ptr %7, align 4
  %34 = call ptr @proto_tree_add_item(ptr noundef %30, i32 noundef %31, ptr noundef %32, i32 noundef %33, i32 noundef 4, i32 noundef 0)
  %35 = load i32, ptr %7, align 4
  %36 = add i32 %35, 4
  store i32 %36, ptr %7, align 4
  %37 = load ptr, ptr %6, align 8
  %38 = load i32, ptr @hf_pktc_mtafqdn_version, align 4
  %39 = load ptr, ptr %5, align 8
  %40 = load i32, ptr %7, align 4
  %41 = call ptr @proto_tree_add_item(ptr noundef %37, i32 noundef %38, ptr noundef %39, i32 noundef %40, i32 noundef 1, i32 noundef 0)
  %42 = load i32, ptr %7, align 4
  %43 = add i32 %42, 1
  store i32 %43, ptr %7, align 4
  %44 = load i8, ptr %9, align 1
  %45 = zext i8 %44 to i32
  switch i32 %45, label %105 [
    i32 1, label %46
    i32 2, label %82
  ]

46:                                               ; preds = %3
  %47 = load ptr, ptr %6, align 8
  %48 = load i32, ptr @hf_pktc_mtafqdn_mac, align 4
  %49 = load ptr, ptr %5, align 8
  %50 = load i32, ptr %7, align 4
  %51 = call ptr @proto_tree_add_item(ptr noundef %47, i32 noundef %48, ptr noundef %49, i32 noundef %50, i32 noundef 6, i32 noundef 0)
  %52 = load i32, ptr %7, align 4
  %53 = add i32 %52, 6
  store i32 %53, ptr %7, align 4
  %54 = load ptr, ptr %6, align 8
  %55 = load i32, ptr @hf_pktc_mtafqdn_pub_key_hash, align 4
  %56 = load ptr, ptr %5, align 8
  %57 = load i32, ptr %7, align 4
  %58 = call ptr @proto_tree_add_item(ptr noundef %54, i32 noundef %55, ptr noundef %56, i32 noundef %57, i32 noundef 20, i32 noundef 0)
  %59 = load i32, ptr %7, align 4
  %60 = add i32 %59, 20
  store i32 %60, ptr %7, align 4
  %61 = load ptr, ptr %5, align 8
  %62 = load i32, ptr %7, align 4
  %63 = call i32 @tvb_get_ntohl(ptr noundef %61, i32 noundef %62)
  store i32 %63, ptr %10, align 4
  %64 = load i32, ptr %10, align 4
  %65 = zext i32 %64 to i64
  %66 = getelementptr inbounds nuw %struct.nstime_t, ptr %11, i32 0, i32 0
  store i64 %65, ptr %66, align 8
  %67 = load i32, ptr %10, align 4
  %68 = icmp eq i32 %67, 0
  br i1 %68, label %69, label %75

69:                                               ; preds = %46
  %70 = load ptr, ptr %6, align 8
  %71 = load i32, ptr @hf_pktc_mtafqdn_manu_cert_revoked, align 4
  %72 = load ptr, ptr %5, align 8
  %73 = load i32, ptr %7, align 4
  %74 = call ptr (ptr, i32, ptr, i32, i32, ptr, ptr, ...) @proto_tree_add_time_format_value(ptr noundef %70, i32 noundef %71, ptr noundef %72, i32 noundef %73, i32 noundef 4, ptr noundef %11, ptr noundef @.str.146)
  br label %81

75:                                               ; preds = %46
  %76 = load ptr, ptr %6, align 8
  %77 = load i32, ptr @hf_pktc_mtafqdn_manu_cert_revoked, align 4
  %78 = load ptr, ptr %5, align 8
  %79 = load i32, ptr %7, align 4
  %80 = call ptr @proto_tree_add_time(ptr noundef %76, i32 noundef %77, ptr noundef %78, i32 noundef %79, i32 noundef 4, ptr noundef %11)
  br label %81

81:                                               ; preds = %75, %69
  br label %105

82:                                               ; preds = %3
  %83 = load ptr, ptr %5, align 8
  %84 = load i32, ptr %7, align 4
  %85 = call i32 @tvb_reported_length_remaining(ptr noundef %83, i32 noundef %84)
  %86 = sub i32 %85, 4
  store i32 %86, ptr %8, align 4
  %87 = load ptr, ptr %6, align 8
  %88 = load i32, ptr @hf_pktc_mtafqdn_fqdn, align 4
  %89 = load ptr, ptr %5, align 8
  %90 = load i32, ptr %7, align 4
  %91 = load i32, ptr %8, align 4
  %92 = call ptr @proto_tree_add_item(ptr noundef %87, i32 noundef %88, ptr noundef %89, i32 noundef %90, i32 noundef %91, i32 noundef 0)
  %93 = load i32, ptr %8, align 4
  %94 = load i32, ptr %7, align 4
  %95 = add i32 %94, %93
  store i32 %95, ptr %7, align 4
  %96 = load ptr, ptr %5, align 8
  %97 = load i32, ptr %7, align 4
  %98 = call ptr @tvb_memcpy(ptr noundef %96, ptr noundef %10, i32 noundef %97, i64 noundef 4)
  %99 = load ptr, ptr %6, align 8
  %100 = load i32, ptr @hf_pktc_mtafqdn_ip, align 4
  %101 = load ptr, ptr %5, align 8
  %102 = load i32, ptr %7, align 4
  %103 = load i32, ptr %10, align 4
  %104 = call ptr @proto_tree_add_ipv4(ptr noundef %99, i32 noundef %100, ptr noundef %101, i32 noundef %102, i32 noundef 4, i32 noundef %103)
  br label %105

105:                                              ; preds = %3, %82, %81
  %106 = load i32, ptr %7, align 4
  call void @llvm.lifetime.end.p0(i64 16, ptr %11) #5
  call void @llvm.lifetime.end.p0(i64 4, ptr %10) #5
  call void @llvm.lifetime.end.p0(i64 1, ptr %9) #5
  call void @llvm.lifetime.end.p0(i64 4, ptr %8) #5
  call void @llvm.lifetime.end.p0(i64 4, ptr %7) #5
  ret i32 %106
}