; Function Attrs: null_pointer_is_valid sspstrong uwtable
define internal noundef i32 @dissect_pktc_mtafqdn_krbsafeuserdata(ptr noundef readonly captures(none) %0, ptr noundef %1, ptr noundef %2) #0 {
  %4 = alloca i32, align 4
  %5 = alloca %struct.nstime_t, align 8
  call void @llvm.lifetime.start.p0(i64 4, ptr nonnull %4) #4
  call void @llvm.lifetime.start.p0(i64 16, ptr nonnull %5) #4
  %6 = tail call zeroext i8 @tvb_get_uint8(ptr noundef %1, i32 noundef 0)
  %7 = load i32, ptr @hf_pktc_mtafqdn_msgtype, align 4
  %8 = zext i8 %6 to i32
  %9 = tail call ptr @proto_tree_add_uint(ptr noundef %2, i32 noundef %7, ptr noundef %1, i32 noundef 0, i32 noundef 1, i32 noundef %8)
  %10 = getelementptr inbounds nuw i8, ptr %0, i64 8
  %11 = load ptr, ptr %10, align 8
  %12 = tail call ptr @val_to_str(i32 noundef %8, ptr noundef nonnull @pktc_mtafqdn_msgtype_vals, ptr noundef nonnull @.str.145)
  tail call void @col_add_str(ptr noundef %11, i32 noundef 25, ptr noundef %12)
  %13 = load i32, ptr @hf_pktc_mtafqdn_enterprise, align 4
  %14 = tail call ptr @proto_tree_add_item(ptr noundef %2, i32 noundef %13, ptr noundef %1, i32 noundef 1, i32 noundef 4, i32 noundef 0)
  %15 = load i32, ptr @hf_pktc_mtafqdn_version, align 4
  %16 = tail call ptr @proto_tree_add_item(ptr noundef %2, i32 noundef %15, ptr noundef %1, i32 noundef 5, i32 noundef 1, i32 noundef 0)
  switch i8 %6, label %40 [
    i8 1, label %17
    i8 2, label %30
  ]

17:                                               ; preds = %3
  %18 = load i32, ptr @hf_pktc_mtafqdn_mac, align 4
  %19 = tail call ptr @proto_tree_add_item(ptr noundef %2, i32 noundef %18, ptr noundef %1, i32 noundef 6, i32 noundef 6, i32 noundef 0)
  %20 = load i32, ptr @hf_pktc_mtafqdn_pub_key_hash, align 4
  %21 = tail call ptr @proto_tree_add_item(ptr noundef %2, i32 noundef %20, ptr noundef %1, i32 noundef 12, i32 noundef 20, i32 noundef 0)
  %22 = tail call i32 @tvb_get_ntohl(ptr noundef %1, i32 noundef 32)
  %23 = zext i32 %22 to i64
  store i64 %23, ptr %5, align 8
  %24 = icmp eq i32 %22, 0
  %25 = load i32, ptr @hf_pktc_mtafqdn_manu_cert_revoked, align 4
  br i1 %24, label %26, label %28

26:                                               ; preds = %17
  %27 = call ptr (ptr, i32, ptr, i32, i32, ptr, ptr, ...) @proto_tree_add_time_format_value(ptr noundef %2, i32 noundef %25, ptr noundef %1, i32 noundef 32, i32 noundef 4, ptr noundef nonnull %5, ptr noundef nonnull @.str.146)
  br label %40

28:                                               ; preds = %17
  %29 = call ptr @proto_tree_add_time(ptr noundef %2, i32 noundef %25, ptr noundef %1, i32 noundef 32, i32 noundef 4, ptr noundef nonnull %5)
  br label %40

30:                                               ; preds = %3
  %31 = tail call i32 @tvb_reported_length_remaining(ptr noundef %1, i32 noundef 6)
  %32 = add i32 %31, -4
  %33 = load i32, ptr @hf_pktc_mtafqdn_fqdn, align 4
  %34 = tail call ptr @proto_tree_add_item(ptr noundef %2, i32 noundef %33, ptr noundef %1, i32 noundef 6, i32 noundef %32, i32 noundef 0)
  %35 = add i32 %31, 2
  %36 = call ptr @tvb_memcpy(ptr noundef %1, ptr noundef nonnull %4, i32 noundef %35, i64 noundef 4)
  %37 = load i32, ptr @hf_pktc_mtafqdn_ip, align 4
  %38 = load i32, ptr %4, align 4
  %39 = call ptr @proto_tree_add_ipv4(ptr noundef %2, i32 noundef %37, ptr noundef %1, i32 noundef %35, i32 noundef 4, i32 noundef %38)
  br label %40

40:                                               ; preds = %26, %28, %30, %3
  %.0 = phi i32 [ 6, %3 ], [ %35, %30 ], [ 32, %26 ], [ 32, %28 ]
  call void @llvm.lifetime.end.p0(i64 16, ptr nonnull %5) #4
  call void @llvm.lifetime.end.p0(i64 4, ptr nonnull %4) #4
  ret i32 %.0
}